target datalayout = "e-m:e-p270:32:32-p271:32:32-p272:64:64-i64:64-i128:128-f80:128-n8:16:32:64-S128"
target triple = "x86_64-pc-linux-gnu"

@proto_register_ged125.ett = internal global [7 x ptr] [ptr @ett_ged125, ptr @ett_ged125_header, ptr @ett_ged125_message, ptr @ett_ged125_floating, ptr @ett_ged125_float_field, ptr @ett_ged125_service_control_header, ptr @ett_ged125_service_control_data], align 16
@.str.245 = private unnamed_addr constant [23 x i8] c"Cisco GED-125 Protocol\00", align 1
@.str.246 = private unnamed_addr constant [7 x i8] c"GED125\00", align 1
@.str.247 = private unnamed_addr constant [7 x i8] c"ged125\00", align 1
@proto_ged125 = internal global i32 0, align 4
@ged125_handle = internal global ptr null, align 8
@.str.248 = private unnamed_addr constant [15 x i8] c"desegment_body\00", align 1
@.str.249 = private unnamed_addr constant [56 x i8] c"Reassemble GED125 bodies spanning multiple TCP segments\00", align 1
@.str.250 = private unnamed_addr constant [90 x i8] c"Whether the GED125 dissector should desegment all messages spanning multiple TCP segments\00", align 1
@ged125_desegment_body = internal global i8 1, align 1

; Function Attrs: null_pointer_is_valid sspstrong uwtable
define hidden void @proto_register_ged125() #0 {
  %1 = alloca ptr, align 8
  %2 = alloca ptr, align 8
  call void @llvm.lifetime.start.p0(i64 8, ptr %1) #3
  call void @llvm.lifetime.start.p0(i64 8, ptr %2) #3
  %3 = call i32 @proto_register_protocol(ptr noundef @.str.245, ptr noundef @.str.246, ptr noundef @.str.247)
  store i32 %3, ptr @proto_ged125, align 4
  %4 = load i32, ptr @proto_ged125, align 4
  call void @proto_register_field_array(i32 noundef %4, ptr noundef @proto_register_ged125.hf, i32 noundef 82)
  call void @proto_register_subtree_array(ptr noundef @proto_register_ged125.ett, i32 noundef 7)
  %5 = load i32, ptr @proto_ged125, align 4
  %6 = call ptr @expert_register_protocol(i32 noundef %5)
  store ptr %6, ptr %2, align 8
  %7 = load ptr, ptr %2, align 8
  call void @expert_register_field_array(ptr noundef %7, ptr noundef @proto_register_ged125.ei, i32 noundef 10)
  %8 = load i32, ptr @proto_ged125, align 4
  %9 = call ptr @register_dissector(ptr noundef @.str.247, ptr noundef @dissect_ged125, i32 noundef %8)
  store ptr %9, ptr @ged125_handle, align 8
  %10 = load i32, ptr @proto_ged125, align 4
  %11 = call ptr @prefs_register_protocol(i32 noundef %10, ptr noundef null)
  store ptr %11, ptr %1, align 8
  %12 = load ptr, ptr %1, align 8
  call void @prefs_register_bool_preference(ptr noundef %12, ptr noundef @.str.248, ptr noundef @.str.249, ptr noundef @.str.250, ptr noundef @ged125_desegment_body)
  call void @llvm.lifetime.end.p0(i64 8, ptr %2) #3
  call void @llvm.lifetime.end.p0(i64 8, ptr %1) #3
  ret void
}