; Function Attrs: null_pointer_is_valid sspstrong uwtable
define hidden void @proto_register_ged125() local_unnamed_addr #0 {
  %1 = tail call i32 @proto_register_protocol(ptr noundef nonnull @.str.245, ptr noundef nonnull @.str.246, ptr noundef nonnull @.str.247)
  store i32 %1, ptr @proto_ged125, align 4
  tail call void @proto_register_field_array(i32 noundef %1, ptr noundef nonnull @proto_register_ged125.hf, i32 noundef 82)
  tail call void @proto_register_subtree_array(ptr noundef nonnull @proto_register_ged125.ett, i32 noundef 7)
  %2 = load i32, ptr @proto_ged125, align 4
  %3 = tail call ptr @expert_register_protocol(i32 noundef %2)
  tail call void @expert_register_field_array(ptr noundef %3, ptr noundef nonnull @proto_register_ged125.ei, i32 noundef 10)
  %4 = load i32, ptr @proto_ged125, align 4
  %5 = tail call ptr @register_dissector(ptr noundef nonnull @.str.247, ptr noundef nonnull @dissect_ged125, i32 noundef %4)
  store ptr %5, ptr @ged125_handle, align 8
  %6 = load i32, ptr @proto_ged125, align 4
  %7 = tail call ptr @prefs_register_protocol(i32 noundef %6, ptr noundef null)
  tail call void @prefs_register_bool_preference(ptr noundef %7, ptr noundef nonnull @.str.248, ptr noundef nonnull @.str.249, ptr noundef nonnull @.str.250, ptr noundef nonnull @ged125_desegment_body)
  ret void
}